target datalayout = "e-m:e-p270:32:32-p271:32:32-p272:64:64-i64:64-i128:128-f80:128-n8:16:32:64-S128"
target triple = "x86_64-pc-linux-gnu"

%union.pthread_mutex_t = type { %struct.__pthread_mutex_s }
%struct.__pthread_mutex_s = type { i32, i32, i32, i32, i32, i16, i16, %struct.__pthread_internal_list }
%struct.__pthread_internal_list = type { ptr, ptr }
%struct.slurm_conf_t = type { i64, ptr, i16, ptr, ptr, ptr, ptr, ptr, i16, ptr, ptr, ptr, ptr, ptr, ptr, ptr, i16, ptr, ptr, ptr, ptr, i16, ptr, ptr, ptr, i64, ptr, ptr, ptr, ptr, i16, ptr, ptr, i16, i32, ptr, i32, ptr, i32, i32, ptr, ptr, i64, i64, ptr, i16, i16, ptr, i32, i32, ptr, i32, ptr, i32, i16, i16, i16, ptr, i16, i16, ptr, ptr, i32, i16, i16, ptr, i32, i16, ptr, ptr, ptr, ptr, i16, ptr, ptr, ptr, ptr, i32, ptr, ptr, ptr, ptr, i16, i16, ptr, i32, i32, i32, i16, i16, ptr, ptr, i16, ptr, ptr, i32, i32, i32, i32, i32, i64, i32, i32, i16, ptr, ptr, i32, ptr, ptr, ptr, i16, i32, ptr, ptr, i16, ptr, ptr, i32, i16, ptr, ptr, ptr, ptr, i32, i32, i16, i16, i32, ptr, i16, ptr, i32, i32, i32, i32, i32, i32, ptr, i16, ptr, ptr, i32, i16, ptr, i32, i16, i16, ptr, ptr, ptr, i16, ptr, ptr, ptr, ptr, i16, i16, ptr, i16, ptr, i16, ptr, i16, ptr, i16, ptr, ptr, ptr, ptr, i16, ptr, ptr, ptr, i32, ptr, i32, ptr, ptr, i16, ptr, ptr, i32, i16, ptr, ptr, i16, i16, ptr, i16, ptr, ptr, ptr, i32, ptr, i16, i16, ptr, ptr, ptr, ptr, ptr, ptr, ptr, ptr, i16, i32, i16, ptr, ptr, ptr, ptr, i32, ptr, ptr, ptr, i16, ptr, ptr, ptr, i16, ptr, i16, ptr, i16, i16, ptr }
%struct.slurmctld_lock_t = type { i32, i32, i32, i32, i32 }
%struct.slurmdb_federation_rec_t = type { ptr, i32, ptr }
%struct.slurmdb_cluster_rec = type { ptr, i16, i64, %struct.sockaddr_storage, ptr, i32, i16, ptr, i16, %struct.slurmdb_cluster_fed_t, i32, %union.pthread_mutex_t, ptr, ptr, ptr, i16, ptr, ptr }
%struct.sockaddr_storage = type { i16, [118 x i8], i64 }
%struct.slurmdb_cluster_fed_t = type { ptr, i32, ptr, ptr, ptr, i32, i8, i8 }
%struct.persist_conn_t = type { ptr, i32, i32, i8, ptr, ptr, ptr, i64, i16, i32, i16, i8, i32, i32, ptr, i16, ptr, i64, i32, ptr, %struct.slurm_trigger_callbacks_t, i16 }
%struct.slurm_trigger_callbacks_t = type { ptr, ptr, ptr, ptr, ptr }

@fed_mgr_fed_rec = dso_local global ptr null, align 8
@.str.1 = private unnamed_addr constant [29 x i8] c"%s: pthread_mutex_lock(): %m\00", align 1
@.str.2 = private unnamed_addr constant [31 x i8] c"%s: pthread_mutex_unlock(): %m\00", align 1
@slurm_conf = external global %struct.slurm_conf_t, align 8
@__const._persist_callback_fini.fed_write_lock = private unnamed_addr constant %struct.slurmctld_lock_t { i32 0, i32 0, i32 0, i32 0, i32 2 }, align 4
@.str.177 = private unnamed_addr constant [26 x i8] c"Couldn't find cluster %s?\00", align 1
@__func__._persist_callback_fini = private unnamed_addr constant [23 x i8] c"_persist_callback_fini\00", align 1
@.str.178 = private unnamed_addr constant [41 x i8] c"FEDR: Closing send to sibling cluster %s\00", align 1

; Function Attrs: nounwind uwtable
define dso_local ptr @fed_mgr_get_cluster_by_name(ptr noundef %0) #0 {
  %2 = alloca ptr, align 8
  %3 = alloca ptr, align 8
  store ptr %0, ptr %3, align 8
  %4 = load ptr, ptr @fed_mgr_fed_rec, align 8
  %5 = icmp ne ptr %4, null
  br i1 %5, label %7, label %6

6:                                                ; preds = %1
  store ptr null, ptr %2, align 8
  br label %13

7:                                                ; preds = %1
  %8 = load ptr, ptr @fed_mgr_fed_rec, align 8
  %9 = getelementptr inbounds nuw %struct.slurmdb_federation_rec_t, ptr %8, i32 0, i32 2
  %10 = load ptr, ptr %9, align 8
  %11 = load ptr, ptr %3, align 8
  %12 = call ptr @list_find_first(ptr noundef %10, ptr noundef @slurmdb_find_cluster_in_list, ptr noundef %11)
  store ptr %12, ptr %2, align 8
  br label %13

13:                                               ; preds = %7, %6
  %14 = load ptr, ptr %2, align 8
  ret ptr %14
}

; Function Attrs: nounwind uwtable
define internal void @_persist_callback_fini(ptr noundef %0) #0 {
  %2 = alloca ptr, align 8
  %3 = alloca ptr, align 8
  %4 = alloca ptr, align 8
  %5 = alloca %struct.slurmctld_lock_t, align 8
  %6 = alloca i32, align 4
  %7 = alloca i32, align 4
  %8 = alloca i32, align 4
  store ptr %0, ptr %2, align 8
  call void @llvm.lifetime.start.p0(i64 8, ptr %3) #9
  %9 = load ptr, ptr %2, align 8
  store ptr %9, ptr %3, align 8
  call void @llvm.lifetime.start.p0(i64 8, ptr %4) #9
  call void @llvm.lifetime.start.p0(i64 20, ptr %5) #9
  call void @llvm.memcpy.p0.p0.i64(ptr align 4 %5, ptr align 4 @__const._persist_callback_fini.fed_write_lock, i64 20, i1 false)
  %10 = load ptr, ptr %3, align 8
  %11 = icmp ne ptr %10, null
  br i1 %11, label %12, label %18

12:                                               ; preds = %1
  %13 = load ptr, ptr %3, align 8
  %14 = getelementptr inbounds nuw %struct.persist_conn_t, ptr %13, i32 0, i32 16
  %15 = load ptr, ptr %14, align 8
  %16 = load i64, ptr %15, align 8
  %17 = icmp ne i64 %16, 0
  br i1 %17, label %18, label %19

18:                                               ; preds = %12, %1
  store i32 1, ptr %6, align 4
  br label %107

19:                                               ; preds = %12
  call void @lock_slurmctld(ptr noundef byval(%struct.slurmctld_lock_t) align 8 %5)
  %20 = load ptr, ptr @fed_mgr_fed_rec, align 8
  %21 = icmp ne ptr %20, null
  br i1 %21, label %23, label %22

22:                                               ; preds = %19
  call void @unlock_slurmctld(ptr noundef byval(%struct.slurmctld_lock_t) align 8 %5)
  store i32 1, ptr %6, align 4
  br label %107

23:                                               ; preds = %19
  %24 = load ptr, ptr %3, align 8
  %25 = getelementptr inbounds nuw %struct.persist_conn_t, ptr %24, i32 0, i32 6
  %26 = load ptr, ptr %25, align 8
  %27 = call ptr @fed_mgr_get_cluster_by_name(ptr noundef %26)
  store ptr %27, ptr %4, align 8
  %28 = icmp ne ptr %27, null
  br i1 %28, label %43, label %29

29:                                               ; preds = %23
  br label %30

30:                                               ; preds = %29
  br label %31

31:                                               ; preds = %30
  %32 = call i32 @get_log_level()
  %33 = icmp sge i32 %32, 3
  br i1 %33, label %34, label %38

34:                                               ; preds = %31
  %35 = load ptr, ptr %3, align 8
  %36 = getelementptr inbounds nuw %struct.persist_conn_t, ptr %35, i32 0, i32 6
  %37 = load ptr, ptr %36, align 8
  call void (i32, ptr, ...) @log_var(i32 noundef 3, ptr noundef @.str.177, ptr noundef %37)
  br label %38

38:                                               ; preds = %34, %31
  br label %39

39:                                               ; preds = %38
  br label %40

40:                                               ; preds = %39
  br label %41

41:                                               ; preds = %40
  br label %42

42:                                               ; preds = %41
  call void @unlock_slurmctld(ptr noundef byval(%struct.slurmctld_lock_t) align 8 %5)
  store i32 1, ptr %6, align 4
  br label %107

43:                                               ; preds = %23
  br label %44

44:                                               ; preds = %43
  call void @llvm.lifetime.start.p0(i64 4, ptr %7) #9
  %45 = load ptr, ptr %4, align 8
  %46 = getelementptr inbounds nuw %struct.slurmdb_cluster_rec, ptr %45, i32 0, i32 11
  %47 = call i32 @pthread_mutex_lock(ptr noundef %46) #9
  store i32 %47, ptr %7, align 4
  %48 = load i32, ptr %7, align 4
  %49 = icmp ne i32 %48, 0
  br i1 %49, label %50, label %53

50:                                               ; preds = %44
  %51 = load i32, ptr %7, align 4
  %52 = call ptr @__errno_location() #10
  store i32 %51, ptr %52, align 4
  call void (ptr, ...) @fatal_abort(ptr noundef @.str.1, ptr noundef @__func__._persist_callback_fini) #11
  unreachable

53:                                               ; preds = %44
  call void @llvm.lifetime.end.p0(i64 4, ptr %7) #9
  br label %54

54:                                               ; preds = %53
  br label %55

55:                                               ; preds = %54
  %56 = load ptr, ptr %4, align 8
  %57 = getelementptr inbounds nuw %struct.slurmdb_cluster_rec, ptr %56, i32 0, i32 9
  %58 = getelementptr inbounds nuw %struct.slurmdb_cluster_fed_t, ptr %57, i32 0, i32 3
  store ptr null, ptr %58, align 8
  %59 = load ptr, ptr %4, align 8
  %60 = getelementptr inbounds nuw %struct.slurmdb_cluster_rec, ptr %59, i32 0, i32 9
  %61 = getelementptr inbounds nuw %struct.slurmdb_cluster_fed_t, ptr %60, i32 0, i32 4
  %62 = load ptr, ptr %61, align 8
  store ptr %62, ptr %3, align 8
  %63 = load ptr, ptr %3, align 8
  %64 = icmp ne ptr %63, null
  br i1 %64, label %65, label %88

65:                                               ; preds = %55
  br label %66

66:                                               ; preds = %65
  %67 = load i64, ptr getelementptr inbounds nuw (%struct.slurm_conf_t, ptr @slurm_conf, i32 0, i32 42), align 8
  %68 = and i64 %67, 281474976710656
  %69 = icmp ne i64 %68, 0
  br i1 %69, label %70, label %81

70:                                               ; preds = %66
  br label %71

71:                                               ; preds = %70
  %72 = call i32 @get_log_level()
  %73 = icmp sge i32 %72, 4
  br i1 %73, label %74, label %78

74:                                               ; preds = %71
  %75 = load ptr, ptr %4, align 8
  %76 = getelementptr inbounds nuw %struct.slurmdb_cluster_rec, ptr %75, i32 0, i32 12
  %77 = load ptr, ptr %76, align 8
  call void (i32, ptr, ...) @log_var(i32 noundef 4, ptr noundef @.str.178, ptr noundef %77)
  br label %78

78:                                               ; preds = %74, %71
  br label %79

79:                                               ; preds = %78
  br label %80

80:                                               ; preds = %79
  br label %81

81:                                               ; preds = %80, %66
  br label %82

82:                                               ; preds = %81
  br label %83

83:                                               ; preds = %82
  %84 = load ptr, ptr %3, align 8
  call void @slurm_persist_conn_destroy(ptr noundef %84)
  %85 = load ptr, ptr %4, align 8
  %86 = getelementptr inbounds nuw %struct.slurmdb_cluster_rec, ptr %85, i32 0, i32 9
  %87 = getelementptr inbounds nuw %struct.slurmdb_cluster_fed_t, ptr %86, i32 0, i32 4
  store ptr null, ptr %87, align 8
  br label %88

88:                                               ; preds = %83, %55
  %89 = load ptr, ptr %4, align 8
  %90 = getelementptr inbounds nuw %struct.slurmdb_cluster_rec, ptr %89, i32 0, i32 9
  %91 = getelementptr inbounds nuw %struct.slurmdb_cluster_fed_t, ptr %90, i32 0, i32 6
  store i8 0, ptr %91, align 4
  %92 = load ptr, ptr %4, align 8
  %93 = getelementptr inbounds nuw %struct.slurmdb_cluster_rec, ptr %92, i32 0, i32 9
  %94 = getelementptr inbounds nuw %struct.slurmdb_cluster_fed_t, ptr %93, i32 0, i32 7
  store i8 0, ptr %94, align 1
  br label %95

95:                                               ; preds = %88
  call void @llvm.lifetime.start.p0(i64 4, ptr %8) #9
  %96 = load ptr, ptr %4, align 8
  %97 = getelementptr inbounds nuw %struct.slurmdb_cluster_rec, ptr %96, i32 0, i32 11
  %98 = call i32 @pthread_mutex_unlock(ptr noundef %97) #9
  store i32 %98, ptr %8, align 4
  %99 = load i32, ptr %8, align 4
  %100 = icmp ne i32 %99, 0
  br i1 %100, label %101, label %104

101:                                              ; preds = %95
  %102 = load i32, ptr %8, align 4
  %103 = call ptr @__errno_location() #10
  store i32 %102, ptr %103, align 4
  call void (ptr, ...) @fatal_abort(ptr noundef @.str.2, ptr noundef @__func__._persist_callback_fini) #11
  unreachable

104:                                              ; preds = %95
  call void @llvm.lifetime.end.p0(i64 4, ptr %8) #9
  br label %105

105:                                              ; preds = %104
  br label %106

106:                                              ; preds = %105
  call void @unlock_slurmctld(ptr noundef byval(%struct.slurmctld_lock_t) align 8 %5)
  store i32 0, ptr %6, align 4
  br label %107

107:                                              ; preds = %106, %42, %22, %18
  call void @llvm.lifetime.end.p0(i64 20, ptr %5) #9
  call void @llvm.lifetime.end.p0(i64 8, ptr %4) #9
  call void @llvm.lifetime.end.p0(i64 8, ptr %3) #9
  %108 = load i32, ptr %6, align 4
  switch i32 %108, label %110 [
    i32 0, label %109
    i32 1, label %109
  ]

109:                                              ; preds = %107, %107
  ret void

110:                                              ; preds = %107
  unreachable
}