; Function Attrs: nounwind uwtable
define internal void @_persist_callback_fini(ptr noundef readonly captures(address_is_null) %0) #0 {
  %.not = icmp eq ptr %0, null
  br i1 %.not, label %43, label %2

2:                                                ; preds = %1
  %3 = getelementptr inbounds nuw i8, ptr %0, i64 96
  %4 = load ptr, ptr %3, align 8
  %5 = load i64, ptr %4, align 8
  %.not22 = icmp eq i64 %5, 0
  br i1 %.not22, label %6, label %43

6:                                                ; preds = %2
  tail call void @lock_slurmctld(ptr noundef nonnull byval(%struct.slurmctld_lock_t) align 8 @__const._persist_callback_fini.fed_write_lock) #16
  %7 = load ptr, ptr @fed_mgr_fed_rec, align 8
  %.not23 = icmp eq ptr %7, null
  br i1 %.not23, label %.sink.split, label %fed_mgr_get_cluster_by_name.exit

fed_mgr_get_cluster_by_name.exit:                 ; preds = %6
  %8 = getelementptr inbounds nuw i8, ptr %0, i64 40
  %9 = load ptr, ptr %8, align 8
  %10 = getelementptr inbounds nuw i8, ptr %7, i64 16
  %11 = load ptr, ptr %10, align 8
  %12 = tail call ptr @list_find_first(ptr noundef %11, ptr noundef nonnull @slurmdb_find_cluster_in_list, ptr noundef %9) #16
  %.not24 = icmp eq ptr %12, null
  br i1 %.not24, label %13, label %18

13:                                               ; preds = %fed_mgr_get_cluster_by_name.exit
  %14 = tail call i32 @get_log_level() #16
  %15 = icmp sgt i32 %14, 2
  br i1 %15, label %16, label %.sink.split

16:                                               ; preds = %13
  %17 = load ptr, ptr %8, align 8
  tail call void (i32, ptr, ...) @log_var(i32 noundef 3, ptr noundef nonnull @.str.177, ptr noundef %17) #16
  br label %.sink.split

18:                                               ; preds = %fed_mgr_get_cluster_by_name.exit
  %19 = getelementptr inbounds nuw i8, ptr %12, i64 240
  %20 = tail call i32 @pthread_mutex_lock(ptr noundef nonnull %19) #16
  %.not25 = icmp eq i32 %20, 0
  br i1 %.not25, label %23, label %21

21:                                               ; preds = %18
  %22 = tail call ptr @__errno_location() #17
  store i32 %20, ptr %22, align 4
  tail call void (ptr, ...) @fatal_abort(ptr noundef nonnull @.str.1, ptr noundef nonnull @__func__._persist_callback_fini) #18
  unreachable

23:                                               ; preds = %18
  %24 = getelementptr inbounds nuw i8, ptr %12, i64 208
  store ptr null, ptr %24, align 8
  %25 = getelementptr inbounds nuw i8, ptr %12, i64 216
  %26 = load ptr, ptr %25, align 8
  %.not26 = icmp eq ptr %26, null
  br i1 %.not26, label %37, label %27

27:                                               ; preds = %23
  %28 = load i64, ptr getelementptr inbounds nuw (i8, ptr @slurm_conf, i64 320), align 8
  %29 = and i64 %28, 281474976710656
  %.not27 = icmp eq i64 %29, 0
  br i1 %.not27, label %36, label %30

30:                                               ; preds = %27
  %31 = tail call i32 @get_log_level() #16
  %32 = icmp sgt i32 %31, 3
  br i1 %32, label %33, label %36

33:                                               ; preds = %30
  %34 = getelementptr inbounds nuw i8, ptr %12, i64 280
  %35 = load ptr, ptr %34, align 8
  tail call void (i32, ptr, ...) @log_var(i32 noundef 4, ptr noundef nonnull @.str.178, ptr noundef %35) #16
  br label %36

36:                                               ; preds = %30, %33, %27
  tail call void @slurm_persist_conn_destroy(ptr noundef nonnull %26) #16
  store ptr null, ptr %25, align 8
  br label %37

37:                                               ; preds = %36, %23
  %38 = getelementptr inbounds nuw i8, ptr %12, i64 228
  store i8 0, ptr %38, align 4
  %39 = getelementptr inbounds nuw i8, ptr %12, i64 229
  store i8 0, ptr %39, align 1
  %40 = tail call i32 @pthread_mutex_unlock(ptr noundef nonnull %19) #16
  %.not28 = icmp eq i32 %40, 0
  br i1 %.not28, label %.sink.split, label %41

41:                                               ; preds = %37
  %42 = tail call ptr @__errno_location() #17
  store i32 %40, ptr %42, align 4
  tail call void (ptr, ...) @fatal_abort(ptr noundef nonnull @.str.2, ptr noundef nonnull @__func__._persist_callback_fini) #18
  unreachable

.sink.split:                                      ; preds = %37, %13, %16, %6
  tail call void @unlock_slurmctld(ptr noundef nonnull byval(%struct.slurmctld_lock_t) align 8 @__const._persist_callback_fini.fed_write_lock) #16
  br label %43

43:                                               ; preds = %.sink.split, %1, %2
  ret void
}